; Function Attrs: nounwind uwtable
define void @Gia_ManSifDupNode_rec(ptr noundef %0, ptr noundef %1, ptr noundef %2) local_unnamed_addr #0 {
  %4 = getelementptr inbounds nuw i8, ptr %1, i64 616
  %5 = load ptr, ptr %4, align 8, !tbaa !3
  %6 = getelementptr i8, ptr %1, i64 32
  %.val.i.i = load ptr, ptr %6, align 8, !tbaa !28
  %7 = ptrtoint ptr %2 to i64
  %8 = ptrtoint ptr %.val.i.i to i64
  %9 = sub i64 %7, %8
  %10 = sdiv exact i64 %9, 12
  %sext.i.i = shl i64 %10, 32
  %11 = ashr exact i64 %sext.i.i, 30
  %12 = getelementptr inbounds i8, ptr %5, i64 %11
  %13 = load i32, ptr %12, align 4, !tbaa !29
  %14 = getelementptr inbounds nuw i8, ptr %1, i64 176
  %15 = load i32, ptr %14, align 8, !tbaa !30
  %.not.i = icmp eq i32 %13, %15
  br i1 %.not.i, label %common.ret14, label %16

common.ret14:                                     ; preds = %3, %16
  ret void

16:                                               ; preds = %3
  store i32 %15, ptr %12, align 4, !tbaa !29
  %17 = load i64, ptr %2, align 4
  %18 = and i64 %17, 536870911
  %19 = sub nsw i64 0, %18
  %20 = getelementptr inbounds %struct.Gia_Obj_t_, ptr %2, i64 %19
  tail call void @Gia_ManSifDupNode_rec(ptr noundef %0, ptr noundef nonnull %1, ptr noundef nonnull %20)
  %21 = load i64, ptr %2, align 4
  %22 = lshr i64 %21, 32
  %23 = and i64 %22, 536870911
  %24 = sub nsw i64 0, %23
  %25 = getelementptr inbounds %struct.Gia_Obj_t_, ptr %2, i64 %24
  tail call void @Gia_ManSifDupNode_rec(ptr noundef %0, ptr noundef nonnull %1, ptr noundef nonnull %25)
  %26 = load i64, ptr %2, align 4
  %27 = and i64 %26, 536870911
  %28 = sub nsw i64 0, %27
  %29 = getelementptr inbounds %struct.Gia_Obj_t_, ptr %2, i64 %28, i32 1
  %30 = load i32, ptr %29, align 4, !tbaa !31
  %31 = trunc i64 %26 to i32
  %32 = lshr i32 %31, 29
  %33 = and i32 %32, 1
  %34 = xor i32 %33, %30
  %35 = lshr i64 %26, 32
  %36 = and i64 %35, 536870911
  %37 = sub nsw i64 0, %36
  %38 = getelementptr inbounds %struct.Gia_Obj_t_, ptr %2, i64 %37, i32 1
  %39 = load i32, ptr %38, align 4, !tbaa !31
  %40 = lshr i64 %26, 61
  %41 = trunc nuw nsw i64 %40 to i32
  %42 = and i32 %41, 1
  %43 = xor i32 %42, %39
  %44 = tail call fastcc i32 @Gia_ManAppendAnd2(ptr noundef %0, i32 noundef %34, i32 noundef %43)
  %45 = getelementptr inbounds nuw i8, ptr %2, i64 8
  store i32 %44, ptr %45, align 4, !tbaa !31
  br label %common.ret14
}